Certificate:
    Data:
        Version: 1 (0x0)
        Serial Number: 1 (0x1)
        Signature Algorithm: sha1WithRSAEncryption
        Issuer: C=PL, ST=Maz, L=Waw, O=A, OU=A, CN=localhost/emailAddress=a@a.pl
        Validity
            Not Before: Jan 18 21:35:38 2020 GMT
            Not After : Jan 17 21:35:38 2021 GMT
        Subject: C=PL, ST=Maz, L=Waw, O=A, OU=A, CN=localhost/emailAddress=a@a.pl
        Subject Public Key Info:
            Public Key Algorithm: rsaEncryption
                RSA Public-Key: (2048 bit)
                Modulus:
                    00:c1:fe:37:c9:b2:b2:8b:51:ca:2a:ff:3c:e7:e3:
                    57:d7:50:99:e8:e4:b0:03:be:0e:fa:0e:3c:c6:75:
                    08:c1:aa:7f:7c:fd:26:04:31:0a:ca:ad:69:8b:6f:
                    d9:fe:18:b5:05:67:ec:7a:44:85:20:8c:d1:39:0b:
                    0f:48:b1:14:17:ea:08:16:30:08:3e:f0:d1:b2:9d:
                    13:9b:7f:ee:f2:b1:08:8a:ce:e3:47:45:c1:06:a3:
                    80:63:f3:28:4d:ff:8e:99:84:19:7d:46:ce:3d:01:
                    a8:6c:04:f9:3b:10:fe:b6:02:ab:2f:16:82:50:bd:
                    09:18:55:6e:dd:56:93:ce:55:56:69:1d:35:f7:67:
                    5d:5f:20:3c:be:d0:00:e2:b9:26:ad:aa:b9:a2:6a:
                    d9:93:bf:b3:95:55:53:18:43:a1:4e:2a:55:96:e4:
                    44:77:be:63:c4:a0:62:7c:a8:ba:8b:57:13:a8:4e:
                    c4:8a:46:8a:5e:9e:e5:e0:30:0e:97:10:e2:e9:ec:
                    dd:c5:36:c3:3c:e7:46:86:c6:9c:9b:40:3d:c9:fb:
                    69:49:c3:02:47:60:87:1b:77:c5:0f:c9:29:5f:2a:
                    b6:f2:90:45:8a:f3:45:e8:2d:c1:a3:06:76:17:07:
                    02:22:50:1a:ae:9b:bf:67:d9:66:25:d1:92:07:f7:
                    8c:9f
                Exponent: 65537 (0x10001)
    Signature Algorithm: sha1WithRSAEncryption
         1d:9a:33:53:74:3f:6a:f5:a7:c6:2b:22:d2:85:d9:a7:e7:3b:
         7f:15:0e:98:2e:29:c6:ae:07:03:f1:f2:24:4d:12:66:af:4d:
         8c:03:23:62:5d:ee:37:61:41:e8:85:16:87:33:ec:ba:27:30:
         b3:4b:fd:71:0a:df:8e:18:ba:33:47:c3:f9:ed:e3:e1:ff:29:
         13:5d:93:1b:d8:35:bf:b0:a6:ee:ae:a0:45:9d:ff:25:ab:64:
         15:52:60:13:db:d9:ad:d9:e0:69:f0:da:e0:75:94:23:a6:f6:
         6a:5f:7d:6e:ef:d4:45:bd:0b:c7:d4:cf:7d:5c:17:f0:a4:9c:
         be:b6:93:a8:34:76:ff:6c:b4:c2:a2:44:18:60:c4:8f:56:40:
         e0:24:8c:cc:ce:b3:79:93:d8:d1:54:8e:20:e2:e1:e8:92:73:
         46:5d:c1:8c:5f:bd:ab:5b:b4:14:4e:5e:3b:2b:57:21:b3:31:
         50:3f:08:35:16:9b:9b:9c:e6:dd:83:a6:35:2e:d3:c9:68:f2:
         72:93:62:43:98:3f:e2:d7:a4:50:4a:ab:14:b3:50:06:f7:0e:
         a3:2c:74:c6:52:5f:9e:1c:13:85:30:d0:fe:c3:22:5a:10:93:
         39:72:0f:dd:e5:3d:cb:08:82:a3:d1:1f:c5:14:f2:a6:69:fb:
         7a:b8:36:20
-----BEGIN CERTIFICATE-----
MIIDTDCCAjQCAQEwDQYJKoZIhvcNAQEFBQAwbDELMAkGA1UEBhMCUEwxDDAKBgNV
BAgMA01hejEMMAoGA1UEBwwDV2F3MQowCAYDVQQKDAFBMQowCAYDVQQLDAFBMRIw
EAYDVQQDDAlsb2NhbGhvc3QxFTATBgkqhkiG9w0BCQEWBmFAYS5wbDAeFw0yMDAx
MTgyMTM1MzhaFw0yMTAxMTcyMTM1MzhaMGwxCzAJBgNVBAYTAlBMMQwwCgYDVQQI
DANNYXoxDDAKBgNVBAcMA1dhdzEKMAgGA1UECgwBQTEKMAgGA1UECwwBQTESMBAG
A1UEAwwJbG9jYWxob3N0MRUwEwYJKoZIhvcNAQkBFgZhQGEucGwwggEiMA0GCSqG
SIb3DQEBAQUAA4IBDwAwggEKAoIBAQDB/jfJsrKLUcoq/zzn41fXUJno5LADvg76
DjzGdQjBqn98/SYEMQrKrWmLb9n+GLUFZ+x6RIUgjNE5Cw9IsRQX6ggWMAg+8NGy
nRObf+7ysQiKzuNHRcEGo4Bj8yhN/46ZhBl9Rs49AahsBPk7EP62AqsvFoJQvQkY
VW7dVpPOVVZpHTX3Z11fIDy+0ADiuSatqrmiatmTv7OVVVMYQ6FOKlWW5ER3vmPE
oGJ8qLqLVxOoTsSKRopenuXgMA6XEOLp7N3FNsM850aGxpybQD3J+2lJwwJHYIcb
d8UPySlfKrbykEWK80XoLcGjBnYXBwIiUBqum79n2WYl0ZIH94yfAgMBAAEwDQYJ
KoZIhvcNAQEFBQADggEBAB2aM1N0P2r1p8YrItKF2afnO38VDpguKcauBwPx8iRN
EmavTYwDI2Jd7jdhQeiFFocz7LonMLNL/XEK344YujNHw/nt4+H/KRNdkxvYNb+w
pu6uoEWd/yWrZBVSYBPb2a3Z4Gnw2uB1lCOm9mpffW7v1EW9C8fUz31cF/CknL62
k6g0dv9stMKiRBhgxI9WQOAkjMzOs3mT2NFUjiDi4eiSc0ZdwYxfvatbtBROXjsr
VyGzMVA/CDUWm5uc5t2DpjUu08lo8nKTYkOYP+LXpFBKqxSzUAb3DqMsdMZSX54c
E4Uw0P7DIloQkzlyD93lPcsIgqPRH8UU8qZp+3q4NiA=
-----END CERTIFICATE-----
